target datalayout = "e-m:e-p270:32:32-p271:32:32-p272:64:64-i64:64-i128:128-f80:128-n8:16:32:64-S128"
target triple = "x86_64-pc-linux-gnu"

%struct._lv_draw_task_t = type { ptr, i32, %struct.lv_area_t, %struct.lv_area_t, %struct.lv_area_t, %struct.lv_area_t, ptr, ptr, i32, ptr, i8, i8 }
%struct.lv_area_t = type { i32, i32, i32, i32 }

; Function Attrs: nounwind uwtable
define ptr @lv_draw_task_get_label_dsc(ptr noundef %0) #0 {
  %2 = alloca ptr, align 8
  store ptr %0, ptr %2, align 8, !tbaa !35
  %3 = load ptr, ptr %2, align 8, !tbaa !35
  %4 = getelementptr inbounds nuw %struct._lv_draw_task_t, ptr %3, i32 0, i32 1
  %5 = load i32, ptr %4, align 8, !tbaa !37
  %6 = icmp eq i32 %5, 5
  br i1 %6, label %7, label %11

7:                                                ; preds = %1
  %8 = load ptr, ptr %2, align 8, !tbaa !35
  %9 = getelementptr inbounds nuw %struct._lv_draw_task_t, ptr %8, i32 0, i32 9
  %10 = load ptr, ptr %9, align 8, !tbaa !41
  br label %12

11:                                               ; preds = %1
  br label %12

12:                                               ; preds = %11, %7
  %13 = phi ptr [ %10, %7 ], [ null, %11 ]
  ret ptr %13
}